; Function Attrs: nounwind uwtable
define dso_local void @logicalrep_write_stream_abort(ptr noundef %0, i32 noundef %1, i32 noundef %2, i64 noundef %3, i64 noundef %4, i1 noundef zeroext %5) local_unnamed_addr #0 {
  tail call void @enlargeStringInfo(ptr noundef %0, i32 noundef 1) #8
  tail call void @llvm.experimental.noalias.scope.decl(metadata !267)
  %7 = load ptr, ptr %0, align 8, !alias.scope !267
  %8 = getelementptr inbounds nuw i8, ptr %0, i64 8
  %9 = load i32, ptr %8, align 8, !alias.scope !267
  %10 = sext i32 %9 to i64
  %11 = getelementptr inbounds i8, ptr %7, i64 %10
  store i8 65, ptr %11, align 1, !noalias !267
  %12 = add i32 %9, 1
  store i32 %12, ptr %8, align 8, !alias.scope !267
  tail call void @enlargeStringInfo(ptr noundef nonnull %0, i32 noundef 4) #8
  tail call void @llvm.experimental.noalias.scope.decl(metadata !270)
  %13 = tail call i32 @llvm.bswap.i32(i32 %1)
  %14 = load ptr, ptr %0, align 8, !alias.scope !270
  %15 = load i32, ptr %8, align 8, !alias.scope !270
  %16 = sext i32 %15 to i64
  %17 = getelementptr inbounds i8, ptr %14, i64 %16
  store i32 %13, ptr %17, align 1, !noalias !270
  %18 = add i32 %15, 4
  store i32 %18, ptr %8, align 8, !alias.scope !270
  tail call void @enlargeStringInfo(ptr noundef nonnull %0, i32 noundef 4) #8
  tail call void @llvm.experimental.noalias.scope.decl(metadata !273)
  %19 = tail call i32 @llvm.bswap.i32(i32 %2)
  %20 = load ptr, ptr %0, align 8, !alias.scope !273
  %21 = load i32, ptr %8, align 8, !alias.scope !273
  %22 = sext i32 %21 to i64
  %23 = getelementptr inbounds i8, ptr %20, i64 %22
  store i32 %19, ptr %23, align 1, !noalias !273
  %24 = add i32 %21, 4
  store i32 %24, ptr %8, align 8, !alias.scope !273
  br i1 %5, label %25, label %38

25:                                               ; preds = %6
  tail call void @enlargeStringInfo(ptr noundef nonnull %0, i32 noundef 8) #8
  tail call void @llvm.experimental.noalias.scope.decl(metadata !276)
  %26 = tail call i64 @llvm.bswap.i64(i64 %3)
  %27 = load ptr, ptr %0, align 8, !alias.scope !276
  %28 = load i32, ptr %8, align 8, !alias.scope !276
  %29 = sext i32 %28 to i64
  %30 = getelementptr inbounds i8, ptr %27, i64 %29
  store i64 %26, ptr %30, align 1, !noalias !276
  %31 = add i32 %28, 8
  store i32 %31, ptr %8, align 8, !alias.scope !276
  tail call void @enlargeStringInfo(ptr noundef nonnull %0, i32 noundef 8) #8
  tail call void @llvm.experimental.noalias.scope.decl(metadata !279)
  %32 = tail call i64 @llvm.bswap.i64(i64 %4)
  %33 = load ptr, ptr %0, align 8, !alias.scope !279
  %34 = load i32, ptr %8, align 8, !alias.scope !279
  %35 = sext i32 %34 to i64
  %36 = getelementptr inbounds i8, ptr %33, i64 %35
  store i64 %32, ptr %36, align 1, !noalias !279
  %37 = add i32 %34, 8
  store i32 %37, ptr %8, align 8, !alias.scope !279
  br label %38

38:                                               ; preds = %25, %6
  ret void
}